
_interrupt:
	MOVWF      R15+0
	SWAPF      STATUS+0, 0
	CLRF       STATUS+0
	MOVWF      ___saveSTATUS+0
	MOVF       PCLATH+0, 0
	MOVWF      ___savePCLATH+0
	CLRF       PCLATH+0

;HB_Final_Code.c,25 :: 		void interrupt () {
;HB_Final_Code.c,26 :: 		if (INTF_bit)   {
	BTFSS      INTF_bit+0, BitPos(INTF_bit+0)
	GOTO       L_interrupt0
;HB_Final_Code.c,27 :: 		heartbeat_count++ ;
	INCF       _heartbeat_count+0, 1
	BTFSC      STATUS+0, 2
	INCF       _heartbeat_count+1, 1
;HB_Final_Code.c,28 :: 		Delay_ms(300);
	MOVLW      8
	MOVWF      R11+0
	MOVLW      157
	MOVWF      R12+0
	MOVLW      5
	MOVWF      R13+0
L_interrupt1:
	DECFSZ     R13+0, 1
	GOTO       L_interrupt1
	DECFSZ     R12+0, 1
	GOTO       L_interrupt1
	DECFSZ     R11+0, 1
	GOTO       L_interrupt1
	NOP
	NOP
;HB_Final_Code.c,29 :: 		INTF_bit =0 ;
	BCF        INTF_bit+0, BitPos(INTF_bit+0)
;HB_Final_Code.c,30 :: 		}
L_interrupt0:
;HB_Final_Code.c,32 :: 		}
L_end_interrupt:
L__interrupt20:
	MOVF       ___savePCLATH+0, 0
	MOVWF      PCLATH+0
	SWAPF      ___saveSTATUS+0, 0
	MOVWF      STATUS+0
	SWAPF      R15+0, 1
	SWAPF      R15+0, 0
	RETFIE
; end of _interrupt

_Move_Delay:

;HB_Final_Code.c,33 :: 		void Move_Delay() {                  // Function used for text moving
;HB_Final_Code.c,34 :: 		Delay_ms(500);                     // You can change the moving speed here
	MOVLW      13
	MOVWF      R11+0
	MOVLW      175
	MOVWF      R12+0
	MOVLW      182
	MOVWF      R13+0
L_Move_Delay2:
	DECFSZ     R13+0, 1
	GOTO       L_Move_Delay2
	DECFSZ     R12+0, 1
	GOTO       L_Move_Delay2
	DECFSZ     R11+0, 1
	GOTO       L_Move_Delay2
	NOP
;HB_Final_Code.c,35 :: 		}
L_end_Move_Delay:
	RETURN
; end of _Move_Delay

_main:

;HB_Final_Code.c,37 :: 		void main(){
;HB_Final_Code.c,38 :: 		TRISD=0;         // SET THE DIRECTION OF PORTD AS OUTPUT
	CLRF       TRISD+0
;HB_Final_Code.c,39 :: 		TRISB0_bit =1;   // Set RB0 as input (heartbeat sensor)
	BSF        TRISB0_bit+0, BitPos(TRISB0_bit+0)
;HB_Final_Code.c,40 :: 		INTCON = 0XD0 ;         //SET THE INTERUPT REGISTER
	MOVLW      208
	MOVWF      INTCON+0
;HB_Final_Code.c,41 :: 		OPTION_REG.INTEDG = 0;    // INT OCCURE ON FALLING EDGE
	BCF        OPTION_REG+0, 6
;HB_Final_Code.c,42 :: 		INTEDG_bit = 0;
	BCF        INTEDG_bit+0, BitPos(INTEDG_bit+0)
;HB_Final_Code.c,43 :: 		Lcd_Init();                        // Initialize LCD
	CALL       _Lcd_Init+0
;HB_Final_Code.c,45 :: 		Lcd_Cmd(_LCD_CLEAR);               // Clear display
	MOVLW      1
	MOVWF      FARG_Lcd_Cmd_out_char+0
	CALL       _Lcd_Cmd+0
;HB_Final_Code.c,46 :: 		Lcd_Cmd(_LCD_CURSOR_OFF);          // Cursor off
	MOVLW      12
	MOVWF      FARG_Lcd_Cmd_out_char+0
	CALL       _Lcd_Cmd+0
;HB_Final_Code.c,51 :: 		Lcd_Cmd(_LCD_CLEAR);               // Clear display
	MOVLW      1
	MOVWF      FARG_Lcd_Cmd_out_char+0
	CALL       _Lcd_Cmd+0
;HB_Final_Code.c,52 :: 		while(1) {
L_main3:
;HB_Final_Code.c,53 :: 		T1++ ;
	INCF       _T1+0, 1
	BTFSC      STATUS+0, 2
	INCF       _T1+1, 1
;HB_Final_Code.c,54 :: 		Lcd_Cmd(_LCD_CLEAR);
	MOVLW      1
	MOVWF      FARG_Lcd_Cmd_out_char+0
	CALL       _Lcd_Cmd+0
;HB_Final_Code.c,55 :: 		Lcd_Cmd(_LCD_CURSOR_OFF);
	MOVLW      12
	MOVWF      FARG_Lcd_Cmd_out_char+0
	CALL       _Lcd_Cmd+0
;HB_Final_Code.c,56 :: 		Lcd_Out(1,1,"H.B :");
	MOVLW      1
	MOVWF      FARG_Lcd_Out_row+0
	MOVLW      1
	MOVWF      FARG_Lcd_Out_column+0
	MOVLW      ?lstr1_HB_Final_Code+0
	MOVWF      FARG_Lcd_Out_text+0
	CALL       _Lcd_Out+0
;HB_Final_Code.c,57 :: 		IntToStr(heartbeat_count, i); // covert int to string for LCD display
	MOVF       _heartbeat_count+0, 0
	MOVWF      FARG_IntToStr_input+0
	MOVF       _heartbeat_count+1, 0
	MOVWF      FARG_IntToStr_input+1
	MOVLW      _i+0
	MOVWF      FARG_IntToStr_output+0
	CALL       _IntToStr+0
;HB_Final_Code.c,58 :: 		Lcd_Out(1,7,i);
	MOVLW      1
	MOVWF      FARG_Lcd_Out_row+0
	MOVLW      7
	MOVWF      FARG_Lcd_Out_column+0
	MOVLW      _i+0
	MOVWF      FARG_Lcd_Out_text+0
	CALL       _Lcd_Out+0
;HB_Final_Code.c,59 :: 		IntToStr(T1, J);   //covert T1 from int to string
	MOVF       _T1+0, 0
	MOVWF      FARG_IntToStr_input+0
	MOVF       _T1+1, 0
	MOVWF      FARG_IntToStr_input+1
	MOVLW      _J+0
	MOVWF      FARG_IntToStr_output+0
	CALL       _IntToStr+0
;HB_Final_Code.c,60 :: 		Lcd_Out(2,1,"TIMER:");
	MOVLW      2
	MOVWF      FARG_Lcd_Out_row+0
	MOVLW      1
	MOVWF      FARG_Lcd_Out_column+0
	MOVLW      ?lstr2_HB_Final_Code+0
	MOVWF      FARG_Lcd_Out_text+0
	CALL       _Lcd_Out+0
;HB_Final_Code.c,61 :: 		Lcd_Out(2,7,J);
	MOVLW      2
	MOVWF      FARG_Lcd_Out_row+0
	MOVLW      7
	MOVWF      FARG_Lcd_Out_column+0
	MOVLW      _J+0
	MOVWF      FARG_Lcd_Out_text+0
	CALL       _Lcd_Out+0
;HB_Final_Code.c,62 :: 		delay_ms(1000); // Update every second
	MOVLW      26
	MOVWF      R11+0
	MOVLW      94
	MOVWF      R12+0
	MOVLW      110
	MOVWF      R13+0
L_main5:
	DECFSZ     R13+0, 1
	GOTO       L_main5
	DECFSZ     R12+0, 1
	GOTO       L_main5
	DECFSZ     R11+0, 1
	GOTO       L_main5
	NOP
;HB_Final_Code.c,63 :: 		if (T1 >= 60) {
	MOVLW      128
	XORWF      _T1+1, 0
	MOVWF      R0+0
	MOVLW      128
	SUBWF      R0+0, 0
	BTFSS      STATUS+0, 2
	GOTO       L__main23
	MOVLW      60
	SUBWF      _T1+0, 0
L__main23:
	BTFSS      STATUS+0, 0
	GOTO       L_main6
;HB_Final_Code.c,64 :: 		delay_ms(5000); // Update every second                         // Has 1ms elapsed?
	MOVLW      127
	MOVWF      R11+0
	MOVLW      212
	MOVWF      R12+0
	MOVLW      49
	MOVWF      R13+0
L_main7:
	DECFSZ     R13+0, 1
	GOTO       L_main7
	DECFSZ     R12+0, 1
	GOTO       L_main7
	DECFSZ     R11+0, 1
	GOTO       L_main7
	NOP
	NOP
;HB_Final_Code.c,65 :: 		T1 = 0;
	CLRF       _T1+0
	CLRF       _T1+1
;HB_Final_Code.c,66 :: 		heartbeat_count=0;                          // Clear the counter                              // Increment msec on every 1 ms
	CLRF       _heartbeat_count+0
	CLRF       _heartbeat_count+1
;HB_Final_Code.c,67 :: 		}
L_main6:
;HB_Final_Code.c,69 :: 		if ((heartbeat_count <= 100) && (heartbeat_count >= 62)){          //ALARM
	MOVLW      128
	MOVWF      R0+0
	MOVLW      128
	XORWF      _heartbeat_count+1, 0
	SUBWF      R0+0, 0
	BTFSS      STATUS+0, 2
	GOTO       L__main24
	MOVF       _heartbeat_count+0, 0
	SUBLW      100
L__main24:
	BTFSS      STATUS+0, 0
	GOTO       L_main10
	MOVLW      128
	XORWF      _heartbeat_count+1, 0
	MOVWF      R0+0
	MOVLW      128
	SUBWF      R0+0, 0
	BTFSS      STATUS+0, 2
	GOTO       L__main25
	MOVLW      62
	SUBWF      _heartbeat_count+0, 0
L__main25:
	BTFSS      STATUS+0, 0
	GOTO       L_main10
L__main18:
;HB_Final_Code.c,70 :: 		PORTD=255;
	MOVLW      255
	MOVWF      PORTD+0
;HB_Final_Code.c,71 :: 		delay_ms(500); // DELAY 3S
	MOVLW      13
	MOVWF      R11+0
	MOVLW      175
	MOVWF      R12+0
	MOVLW      182
	MOVWF      R13+0
L_main11:
	DECFSZ     R13+0, 1
	GOTO       L_main11
	DECFSZ     R12+0, 1
	GOTO       L_main11
	DECFSZ     R11+0, 1
	GOTO       L_main11
	NOP
;HB_Final_Code.c,72 :: 		PORTD=0;
	CLRF       PORTD+0
;HB_Final_Code.c,73 :: 		delay_ms(500); // DELAY 3S
	MOVLW      13
	MOVWF      R11+0
	MOVLW      175
	MOVWF      R12+0
	MOVLW      182
	MOVWF      R13+0
L_main12:
	DECFSZ     R13+0, 1
	GOTO       L_main12
	DECFSZ     R12+0, 1
	GOTO       L_main12
	DECFSZ     R11+0, 1
	GOTO       L_main12
	NOP
;HB_Final_Code.c,74 :: 		PORTD=255;
	MOVLW      255
	MOVWF      PORTD+0
;HB_Final_Code.c,75 :: 		delay_ms(500); // DELAY 3S
	MOVLW      13
	MOVWF      R11+0
	MOVLW      175
	MOVWF      R12+0
	MOVLW      182
	MOVWF      R13+0
L_main13:
	DECFSZ     R13+0, 1
	GOTO       L_main13
	DECFSZ     R12+0, 1
	GOTO       L_main13
	DECFSZ     R11+0, 1
	GOTO       L_main13
	NOP
;HB_Final_Code.c,76 :: 		PORTD=0;
	CLRF       PORTD+0
;HB_Final_Code.c,77 :: 		delay_ms(500); // DELAY 3S
	MOVLW      13
	MOVWF      R11+0
	MOVLW      175
	MOVWF      R12+0
	MOVLW      182
	MOVWF      R13+0
L_main14:
	DECFSZ     R13+0, 1
	GOTO       L_main14
	DECFSZ     R12+0, 1
	GOTO       L_main14
	DECFSZ     R11+0, 1
	GOTO       L_main14
	NOP
;HB_Final_Code.c,78 :: 		PORTD=255;
	MOVLW      255
	MOVWF      PORTD+0
;HB_Final_Code.c,79 :: 		delay_ms(500); // DELAY 3S
	MOVLW      13
	MOVWF      R11+0
	MOVLW      175
	MOVWF      R12+0
	MOVLW      182
	MOVWF      R13+0
L_main15:
	DECFSZ     R13+0, 1
	GOTO       L_main15
	DECFSZ     R12+0, 1
	GOTO       L_main15
	DECFSZ     R11+0, 1
	GOTO       L_main15
	NOP
;HB_Final_Code.c,80 :: 		PORTD=0;
	CLRF       PORTD+0
;HB_Final_Code.c,81 :: 		delay_ms(500); // DELAY 3S
	MOVLW      13
	MOVWF      R11+0
	MOVLW      175
	MOVWF      R12+0
	MOVLW      182
	MOVWF      R13+0
L_main16:
	DECFSZ     R13+0, 1
	GOTO       L_main16
	DECFSZ     R12+0, 1
	GOTO       L_main16
	DECFSZ     R11+0, 1
	GOTO       L_main16
	NOP
;HB_Final_Code.c,82 :: 		PORTD=255;
	MOVLW      255
	MOVWF      PORTD+0
;HB_Final_Code.c,83 :: 		delay_ms(500); // DELAY 3S
	MOVLW      13
	MOVWF      R11+0
	MOVLW      175
	MOVWF      R12+0
	MOVLW      182
	MOVWF      R13+0
L_main17:
	DECFSZ     R13+0, 1
	GOTO       L_main17
	DECFSZ     R12+0, 1
	GOTO       L_main17
	DECFSZ     R11+0, 1
	GOTO       L_main17
	NOP
;HB_Final_Code.c,84 :: 		PORTD=0;
	CLRF       PORTD+0
;HB_Final_Code.c,85 :: 		heartbeat_count=0;
	CLRF       _heartbeat_count+0
	CLRF       _heartbeat_count+1
;HB_Final_Code.c,86 :: 		T1 = 0;                       // Has 1ms elapsed?
	CLRF       _T1+0
	CLRF       _T1+1
;HB_Final_Code.c,87 :: 		PORTD=0;
	CLRF       PORTD+0
;HB_Final_Code.c,89 :: 		}
L_main10:
;HB_Final_Code.c,90 :: 		}
	GOTO       L_main3
;HB_Final_Code.c,92 :: 		}
L_end_main:
	GOTO       $+0
; end of _main
